target datalayout = "e-m:e-p270:32:32-p271:32:32-p272:64:64-i64:64-i128:128-f80:128-n8:16:32:64-S128"
target triple = "x86_64-unknown-linux-gnu"

%"class.ue2::ComponentBackReference" = type <{ %"class.ue2::Component", %"class.std::__cxx11::basic_string", i32, [4 x i8] }>
%"class.ue2::Component" = type { ptr, i32, i32 }
%"class.std::__cxx11::basic_string" = type { %"struct.std::__cxx11::basic_string<char>::_Alloc_hider", i64, %union.anon }
%"struct.std::__cxx11::basic_string<char>::_Alloc_hider" = type { ptr }
%union.anon = type { i64, [8 x i8] }

; Function Attrs: mustprogress uwtable
define hidden void @_ZN3ue222ComponentBackReferenceC2Ej(ptr noundef nonnull align 8 dereferenceable(52) %this, i32 noundef %id) unnamed_addr #0 align 2 {
entry:
  %this.addr = alloca ptr, align 8
  %id.addr = alloca i32, align 4
  store ptr %this, ptr %this.addr, align 8
  store i32 %id, ptr %id.addr, align 4
  %this1 = load ptr, ptr %this.addr, align 8
  call void @_ZN3ue29ComponentC2Ev(ptr noundef nonnull align 8 dereferenceable(16) %this1)
  store ptr getelementptr inbounds ({ [17 x ptr] }, ptr @_ZTVN3ue222ComponentBackReferenceE, i32 0, i32 0, i32 2), ptr %this1, align 8
  %name = getelementptr inbounds %"class.ue2::ComponentBackReference", ptr %this1, i32 0, i32 1
  call void @_ZNSt7__cxx1112basic_stringIcSt11char_traitsIcESaIcEEC1Ev(ptr noundef nonnull align 8 dereferenceable(32) %name) #7
  %ref_id = getelementptr inbounds %"class.ue2::ComponentBackReference", ptr %this1, i32 0, i32 2
  %0 = load i32, ptr %id.addr, align 4
  store i32 %0, ptr %ref_id, align 8
  ret void
}