; Function Attrs: mustprogress uwtable
define hidden void @_ZN3ue222ComponentBackReferenceC2Ej(ptr noundef nonnull align 8 dereferenceable(52) %this, i32 noundef %id) unnamed_addr #0 align 2 {
entry:
  tail call void @_ZN3ue29ComponentC2Ev(ptr noundef nonnull align 8 dereferenceable(16) %this)
  store ptr getelementptr inbounds ({ [17 x ptr] }, ptr @_ZTVN3ue222ComponentBackReferenceE, i64 0, i32 0, i64 2), ptr %this, align 8
  %name = getelementptr inbounds i8, ptr %this, i64 16
  tail call void @_ZNSt7__cxx1112basic_stringIcSt11char_traitsIcESaIcEEC1Ev(ptr noundef nonnull align 8 dereferenceable(32) %name) #9
  %ref_id = getelementptr inbounds i8, ptr %this, i64 48
  store i32 %id, ptr %ref_id, align 8
  ret void
}